target datalayout = "e-m:e-p270:32:32-p271:32:32-p272:64:64-i64:64-i128:128-f80:128-n8:16:32:64-S128"
target triple = "x86_64-pc-linux-gnu"

%struct.darktable_t = type { %struct.dt_codepath_t, i32, i32, ptr, ptr, ptr, ptr, ptr, ptr, ptr, ptr, ptr, ptr, ptr, ptr, ptr, ptr, ptr, ptr, ptr, ptr, ptr, ptr, ptr, ptr, ptr, ptr, ptr, ptr, ptr, [64 x %struct.dt_pthread_mutex_t], %struct.dt_pthread_mutex_t, %struct.dt_pthread_mutex_t, %struct.dt_pthread_mutex_t, %struct.dt_pthread_mutex_t, %struct.dt_pthread_mutex_t, ptr, ptr, ptr, ptr, ptr, ptr, ptr, ptr, ptr, ptr, ptr, ptr, ptr, %struct.dt_lua_state_t, ptr, double, ptr, i32, [47 x i32], i32, i32, ptr, ptr, %struct.dt_sys_resources_t, %struct.dt_backthumb_t, %struct.dt_gimp_t }
%struct.dt_codepath_t = type { i8, [3 x i8] }
%struct.dt_pthread_mutex_t = type { %union.pthread_mutex_t }
%union.pthread_mutex_t = type { %struct.__pthread_mutex_s }
%struct.__pthread_mutex_s = type { i32, i32, i32, i32, i32, i16, i16, %struct.__pthread_internal_list }
%struct.__pthread_internal_list = type { ptr, ptr }
%struct.dt_lua_state_t = type { i32 }
%struct.dt_sys_resources_t = type { i64, i64, ptr, ptr, i32 }
%struct.dt_backthumb_t = type { double, double, i32, i32, i32, i32 }
%struct.dt_gimp_t = type { i32, ptr, ptr, i32, i32 }
%struct._cairo_rectangle_int = type { i32, i32, i32, i32 }
%struct.dt_control_t = type { i32, ptr, %struct.dt_action_t, %struct.dt_action_t, %struct.dt_action_t, %struct.dt_action_t, %struct.dt_action_t, %struct.dt_action_t, %struct.dt_action_t, %struct.dt_action_t, %struct.dt_action_t, %struct.dt_action_t, %struct.dt_action_t, ptr, ptr, ptr, i32, ptr, i32, i32, ptr, ptr, [256 x i8], i32, double, i32, i32, i64, i32, i32, i32, double, double, i32, i32, i32, i32, i32, i32, [8 x [1000 x i8]], i32, i32, %struct.dt_pthread_mutex_t, i32, i32, [2 x [300 x i8]], i32, i32, %struct.dt_pthread_mutex_t, %struct.dt_pthread_mutex_t, %struct.dt_pthread_mutex_t, double, i32, i32, i32, %struct.dt_pthread_mutex_t, %struct.dt_pthread_mutex_t, %union.pthread_cond_t, i32, ptr, i64, i64, ptr, [5 x ptr], [5 x i64], %struct.dt_pthread_mutex_t, [3 x ptr], [3 x i8], [3 x i64], %struct.anon.0, %struct.anon.2 }
%struct.dt_action_t = type { i32, ptr, ptr, ptr, ptr, ptr }
%union.pthread_cond_t = type { %struct.__pthread_cond_s }
%struct.__pthread_cond_s = type { %union.__atomic_wide_counter, %union.__atomic_wide_counter, [2 x i32], [2 x i32], i32, i32, [2 x i32] }
%union.__atomic_wide_counter = type { i64 }
%struct.anon.0 = type { ptr, i64, i64, double, %struct.dt_pthread_mutex_t, %struct.anon.1 }
%struct.anon.1 = type { ptr, ptr, ptr, ptr, ptr, ptr }
%struct.anon.2 = type { %struct.anon.3 }
%struct.anon.3 = type { ptr, ptr }
%struct._GdkEventMotion = type { i32, ptr, i8, i32, double, double, ptr, i32, i16, ptr, double, double }

@darktable = external global %struct.darktable_t, align 8

; Function Attrs: nounwind uwtable
define internal i32 @_notebook_motion_notify_callback(ptr noundef %0, ptr noundef %1, ptr noundef %2) #0 {
  %4 = alloca ptr, align 8
  %5 = alloca ptr, align 8
  %6 = alloca ptr, align 8
  %7 = alloca %struct._cairo_rectangle_int, align 4
  %8 = alloca %struct._cairo_rectangle_int, align 4
  %9 = alloca ptr, align 8
  %10 = alloca i32, align 4
  %11 = alloca i32, align 4
  %12 = alloca i32, align 4
  store ptr %0, ptr %4, align 8, !tbaa !6
  store ptr %1, ptr %5, align 8, !tbaa !151
  store ptr %2, ptr %6, align 8, !tbaa !99
  call void @llvm.lifetime.start.p0(i64 16, ptr %7) #15
  call void @llvm.lifetime.start.p0(i64 16, ptr %8) #15
  %13 = load ptr, ptr %4, align 8, !tbaa !6
  call void @gtk_widget_get_allocation(ptr noundef %13, ptr noundef %7)
  call void @llvm.lifetime.start.p0(i64 8, ptr %9) #15
  %14 = load ptr, ptr %4, align 8, !tbaa !6
  %15 = call i64 @gtk_notebook_get_type() #16
  %16 = call ptr @g_type_check_instance_cast(ptr noundef %14, i64 noundef %15)
  store ptr %16, ptr %9, align 8, !tbaa !287
  call void @llvm.lifetime.start.p0(i64 4, ptr %10) #15
  %17 = load ptr, ptr %9, align 8, !tbaa !287
  %18 = call i32 @gtk_notebook_get_n_pages(ptr noundef %17)
  store i32 %18, ptr %10, align 4, !tbaa !17
  call void @llvm.lifetime.start.p0(i64 4, ptr %11) #15
  store i32 0, ptr %11, align 4, !tbaa !17
  br label %19

19:                                               ; preds = %49, %3
  %20 = load i32, ptr %11, align 4, !tbaa !17
  %21 = load i32, ptr %10, align 4, !tbaa !17
  %22 = icmp slt i32 %20, %21
  br i1 %22, label %24, label %23

23:                                               ; preds = %19
  store i32 2, ptr %12, align 4
  br label %52

24:                                               ; preds = %19
  %25 = load ptr, ptr %9, align 8, !tbaa !287
  %26 = load ptr, ptr %9, align 8, !tbaa !287
  %27 = load i32, ptr %11, align 4, !tbaa !17
  %28 = call ptr @gtk_notebook_get_nth_page(ptr noundef %26, i32 noundef %27)
  %29 = call ptr @gtk_notebook_get_tab_label(ptr noundef %25, ptr noundef %28)
  call void @gtk_widget_get_allocation(ptr noundef %29, ptr noundef %8)
  %30 = load ptr, ptr %5, align 8, !tbaa !151
  %31 = getelementptr inbounds nuw %struct._GdkEventMotion, ptr %30, i32 0, i32 4
  %32 = load double, ptr %31, align 8, !tbaa !153
  %33 = getelementptr inbounds nuw %struct._cairo_rectangle_int, ptr %7, i32 0, i32 0
  %34 = load i32, ptr %33, align 4, !tbaa !310
  %35 = sitofp i32 %34 to double
  %36 = fadd reassoc nsz arcp contract afn double %32, %35
  %37 = getelementptr inbounds nuw %struct._cairo_rectangle_int, ptr %8, i32 0, i32 0
  %38 = load i32, ptr %37, align 4, !tbaa !310
  %39 = getelementptr inbounds nuw %struct._cairo_rectangle_int, ptr %8, i32 0, i32 2
  %40 = load i32, ptr %39, align 4, !tbaa !80
  %41 = add nsw i32 %38, %40
  %42 = sitofp i32 %41 to double
  %43 = fcmp reassoc nsz arcp contract afn olt double %36, %42
  br i1 %43, label %44, label %48

44:                                               ; preds = %24
  %45 = load i32, ptr %11, align 4, !tbaa !17
  %46 = load ptr, ptr getelementptr inbounds nuw (%struct.darktable_t, ptr @darktable, i32 0, i32 12), align 8, !tbaa !130
  %47 = getelementptr inbounds nuw %struct.dt_control_t, ptr %46, i32 0, i32 19
  store i32 %45, ptr %47, align 4, !tbaa !311
  store i32 2, ptr %12, align 4
  br label %52

48:                                               ; preds = %24
  br label %49

49:                                               ; preds = %48
  %50 = load i32, ptr %11, align 4, !tbaa !17
  %51 = add nsw i32 %50, 1
  store i32 %51, ptr %11, align 4, !tbaa !17
  br label %19

52:                                               ; preds = %44, %23
  call void @llvm.lifetime.end.p0(i64 4, ptr %11) #15
  br label %53

53:                                               ; preds = %52
  store i32 1, ptr %12, align 4
  call void @llvm.lifetime.end.p0(i64 4, ptr %10) #15
  call void @llvm.lifetime.end.p0(i64 8, ptr %9) #15
  call void @llvm.lifetime.end.p0(i64 16, ptr %8) #15
  call void @llvm.lifetime.end.p0(i64 16, ptr %7) #15
  ret i32 0
}