; Function Attrs: nounwind uwtable
define internal noundef i32 @_notebook_motion_notify_callback(ptr noundef %0, ptr noundef readonly captures(none) %1, ptr readnone captures(none) %2) #0 {
  %4 = alloca %struct._cairo_rectangle_int, align 4
  %5 = alloca %struct._cairo_rectangle_int, align 4
  call void @llvm.lifetime.start.p0(i64 16, ptr nonnull %4) #18
  call void @llvm.lifetime.start.p0(i64 16, ptr nonnull %5) #18
  call void @gtk_widget_get_allocation(ptr noundef %0, ptr noundef nonnull %4) #18
  %6 = tail call i64 @gtk_notebook_get_type() #19
  %7 = call ptr @g_type_check_instance_cast(ptr noundef %0, i64 noundef %6) #18
  %8 = call i32 @gtk_notebook_get_n_pages(ptr noundef %7) #18
  %9 = icmp sgt i32 %8, 0
  br i1 %9, label %.lr.ph, label %.loopexit

.lr.ph:                                           ; preds = %3
  %10 = getelementptr inbounds nuw i8, ptr %1, i64 24
  %11 = getelementptr inbounds nuw i8, ptr %5, i64 8
  br label %12

12:                                               ; preds = %.lr.ph, %27
  %.011 = phi i32 [ 0, %.lr.ph ], [ %28, %27 ]
  %13 = call ptr @gtk_notebook_get_nth_page(ptr noundef %7, i32 noundef %.011) #18
  %14 = call ptr @gtk_notebook_get_tab_label(ptr noundef %7, ptr noundef %13) #18
  call void @gtk_widget_get_allocation(ptr noundef %14, ptr noundef nonnull %5) #18
  %15 = load double, ptr %10, align 8, !tbaa !133
  %16 = load i32, ptr %4, align 4, !tbaa !235
  %17 = sitofp i32 %16 to double
  %18 = fadd reassoc nsz arcp contract afn double %15, %17
  %19 = load i32, ptr %5, align 4, !tbaa !235
  %20 = load i32, ptr %11, align 4, !tbaa !68
  %21 = add nsw i32 %20, %19
  %22 = sitofp i32 %21 to double
  %23 = fcmp reassoc nsz arcp contract afn olt double %18, %22
  br i1 %23, label %24, label %27

24:                                               ; preds = %12
  %25 = load ptr, ptr getelementptr inbounds nuw (i8, ptr @darktable, i64 88), align 8, !tbaa !120
  %26 = getelementptr inbounds nuw i8, ptr %25, i64 588
  store i32 %.011, ptr %26, align 4, !tbaa !240
  br label %.loopexit

27:                                               ; preds = %12
  %28 = add nuw nsw i32 %.011, 1
  %exitcond.not = icmp eq i32 %28, %8
  br i1 %exitcond.not, label %.loopexit, label %12

.loopexit:                                        ; preds = %27, %3, %24
  call void @llvm.lifetime.end.p0(i64 16, ptr nonnull %5) #18
  call void @llvm.lifetime.end.p0(i64 16, ptr nonnull %4) #18
  ret i32 0
}